target datalayout = "e-m:e-p270:32:32-p271:32:32-p272:64:64-i64:64-i128:128-f80:128-n8:16:32:64-S128"
target triple = "x86_64-pc-linux-gnu"

@libctx = internal global ptr null, align 8
@.str.6 = private unnamed_addr constant [37 x i8] c"../openssl/test/provider_pkey_test.c\00", align 1
@.str.7 = private unnamed_addr constant [34 x i8] c"fake_rsa = fake_rsa_start(libctx)\00", align 1
@.str.8 = private unnamed_addr constant [46 x i8] c"deflt = OSSL_PROVIDER_load(libctx, \22default\22)\00", align 1
@.str.9 = private unnamed_addr constant [8 x i8] c"default\00", align 1
@.str.10 = private unnamed_addr constant [56 x i8] c"fetch_sig(libctx, \22RSA\22, \22provider=fake-rsa\22, fake_rsa)\00", align 1
@.str.11 = private unnamed_addr constant [4 x i8] c"RSA\00", align 1
@.str.12 = private unnamed_addr constant [18 x i8] c"provider=fake-rsa\00", align 1
@.str.13 = private unnamed_addr constant [57 x i8] c"fetch_sig(libctx, \22RSA\22, \22?provider=fake-rsa\22, fake_rsa)\00", align 1
@.str.14 = private unnamed_addr constant [19 x i8] c"?provider=fake-rsa\00", align 1
@.str.15 = private unnamed_addr constant [69 x i8] c"ctx = EVP_PKEY_CTX_new_from_name(libctx, \22RSA\22, \22provider=fake-rsa\22)\00", align 1
@.str.16 = private unnamed_addr constant [28 x i8] c"EVP_PKEY_fromdata_init(ctx)\00", align 1
@.str.17 = private unnamed_addr constant [54 x i8] c"EVP_PKEY_fromdata(ctx, &pkey, EVP_PKEY_KEYPAIR, NULL)\00", align 1
@.str.18 = private unnamed_addr constant [5 x i8] c"pkey\00", align 1
@.str.19 = private unnamed_addr constant [68 x i8] c"ctx = EVP_PKEY_CTX_new_from_pkey(libctx, pkey, \22?provider=default\22)\00", align 1
@.str.20 = private unnamed_addr constant [18 x i8] c"?provider=default\00", align 1
@.str.21 = private unnamed_addr constant [24 x i8] c"EVP_PKEY_sign_init(ctx)\00", align 1
@.str.22 = private unnamed_addr constant [2 x i8] c"1\00", align 1
@.str.23 = private unnamed_addr constant [43 x i8] c"EVP_PKEY_sign(ctx, NULL, &siglen, NULL, 0)\00", align 1
@.str.24 = private unnamed_addr constant [7 x i8] c"siglen\00", align 1
@.str.25 = private unnamed_addr constant [4 x i8] c"256\00", align 1

; Function Attrs: nounwind uwtable
define internal i32 @test_pkey_sig() #0 {
  %1 = alloca i32, align 4
  %2 = alloca ptr, align 8
  %3 = alloca ptr, align 8
  %4 = alloca i32, align 4
  %5 = alloca i32, align 4
  %6 = alloca ptr, align 8
  %7 = alloca ptr, align 8
  %8 = alloca i32, align 4
  %9 = alloca i64, align 8
  call void @llvm.lifetime.start.p0(i64 8, ptr %2) #3
  store ptr null, ptr %2, align 8, !tbaa !9
  call void @llvm.lifetime.start.p0(i64 8, ptr %3) #3
  store ptr null, ptr %3, align 8, !tbaa !9
  call void @llvm.lifetime.start.p0(i64 4, ptr %4) #3
  call void @llvm.lifetime.start.p0(i64 4, ptr %5) #3
  store i32 0, ptr %5, align 4, !tbaa !11
  call void @llvm.lifetime.start.p0(i64 8, ptr %6) #3
  store ptr null, ptr %6, align 8, !tbaa !13
  call void @llvm.lifetime.start.p0(i64 8, ptr %7) #3
  store ptr null, ptr %7, align 8, !tbaa !15
  %10 = load ptr, ptr @libctx, align 8, !tbaa !4
  %11 = call ptr @fake_rsa_start(ptr noundef %10)
  store ptr %11, ptr %3, align 8, !tbaa !9
  %12 = call i32 @test_ptr(ptr noundef @.str.6, i32 noundef 60, ptr noundef @.str.7, ptr noundef %11)
  %13 = icmp ne i32 %12, 0
  br i1 %13, label %15, label %14

14:                                               ; preds = %0
  store i32 0, ptr %1, align 4
  store i32 1, ptr %8, align 4
  br label %106

15:                                               ; preds = %0
  %16 = load ptr, ptr @libctx, align 8, !tbaa !4
  %17 = call ptr @OSSL_PROVIDER_load(ptr noundef %16, ptr noundef @.str.9)
  store ptr %17, ptr %2, align 8, !tbaa !9
  %18 = call i32 @test_ptr(ptr noundef @.str.6, i32 noundef 63, ptr noundef @.str.8, ptr noundef %17)
  %19 = icmp ne i32 %18, 0
  br i1 %19, label %21, label %20

20:                                               ; preds = %15
  br label %99

21:                                               ; preds = %15
  %22 = load ptr, ptr @libctx, align 8, !tbaa !4
  %23 = load ptr, ptr %3, align 8, !tbaa !9
  %24 = call i32 @fetch_sig(ptr noundef %22, ptr noundef @.str.11, ptr noundef @.str.12, ptr noundef %23)
  %25 = icmp ne i32 %24, 0
  %26 = zext i1 %25 to i32
  %27 = call i32 @test_true(ptr noundef @.str.6, i32 noundef 67, ptr noundef @.str.10, i32 noundef %26)
  %28 = icmp ne i32 %27, 0
  br i1 %28, label %29, label %37

29:                                               ; preds = %21
  %30 = load ptr, ptr @libctx, align 8, !tbaa !4
  %31 = load ptr, ptr %3, align 8, !tbaa !9
  %32 = call i32 @fetch_sig(ptr noundef %30, ptr noundef @.str.11, ptr noundef @.str.14, ptr noundef %31)
  %33 = icmp ne i32 %32, 0
  %34 = zext i1 %33 to i32
  %35 = call i32 @test_true(ptr noundef @.str.6, i32 noundef 68, ptr noundef @.str.13, i32 noundef %34)
  %36 = icmp ne i32 %35, 0
  br i1 %36, label %38, label %37

37:                                               ; preds = %29, %21
  br label %99

38:                                               ; preds = %29
  %39 = load ptr, ptr @libctx, align 8, !tbaa !4
  %40 = call ptr @EVP_PKEY_CTX_new_from_name(ptr noundef %39, ptr noundef @.str.11, ptr noundef @.str.12)
  store ptr %40, ptr %7, align 8, !tbaa !15
  %41 = call i32 @test_ptr(ptr noundef @.str.6, i32 noundef 73, ptr noundef @.str.15, ptr noundef %40)
  %42 = icmp ne i32 %41, 0
  br i1 %42, label %43, label %61

43:                                               ; preds = %38
  %44 = load ptr, ptr %7, align 8, !tbaa !15
  %45 = call i32 @EVP_PKEY_fromdata_init(ptr noundef %44)
  %46 = icmp ne i32 %45, 0
  %47 = zext i1 %46 to i32
  %48 = call i32 @test_true(ptr noundef @.str.6, i32 noundef 74, ptr noundef @.str.16, i32 noundef %47)
  %49 = icmp ne i32 %48, 0
  br i1 %49, label %50, label %61

50:                                               ; preds = %43
  %51 = load ptr, ptr %7, align 8, !tbaa !15
  %52 = call i32 @EVP_PKEY_fromdata(ptr noundef %51, ptr noundef %6, i32 noundef 135, ptr noundef null)
  %53 = icmp ne i32 %52, 0
  %54 = zext i1 %53 to i32
  %55 = call i32 @test_true(ptr noundef @.str.6, i32 noundef 75, ptr noundef @.str.17, i32 noundef %54)
  %56 = icmp ne i32 %55, 0
  br i1 %56, label %57, label %61

57:                                               ; preds = %50
  %58 = load ptr, ptr %6, align 8, !tbaa !13
  %59 = call i32 @test_ptr(ptr noundef @.str.6, i32 noundef 76, ptr noundef @.str.18, ptr noundef %58)
  %60 = icmp ne i32 %59, 0
  br i1 %60, label %62, label %61

61:                                               ; preds = %57, %50, %43, %38
  br label %99

62:                                               ; preds = %57
  %63 = load ptr, ptr %7, align 8, !tbaa !15
  call void @EVP_PKEY_CTX_free(ptr noundef %63)
  store ptr null, ptr %7, align 8, !tbaa !15
  store i32 0, ptr %4, align 4, !tbaa !11
  br label %64

64:                                               ; preds = %95, %62
  %65 = load i32, ptr %4, align 4, !tbaa !11
  %66 = icmp slt i32 %65, 3
  br i1 %66, label %67, label %98

67:                                               ; preds = %64
  call void @llvm.lifetime.start.p0(i64 8, ptr %9) #3
  %68 = load ptr, ptr @libctx, align 8, !tbaa !4
  %69 = load ptr, ptr %6, align 8, !tbaa !13
  %70 = call ptr @EVP_PKEY_CTX_new_from_pkey(ptr noundef %68, ptr noundef %69, ptr noundef @.str.20)
  store ptr %70, ptr %7, align 8, !tbaa !15
  %71 = call i32 @test_ptr(ptr noundef @.str.6, i32 noundef 92, ptr noundef @.str.19, ptr noundef %70)
  %72 = icmp ne i32 %71, 0
  br i1 %72, label %74, label %73

73:                                               ; preds = %67
  store i32 2, ptr %8, align 4
  br label %92

74:                                               ; preds = %67
  %75 = load ptr, ptr %7, align 8, !tbaa !15
  %76 = call i32 @EVP_PKEY_sign_init(ptr noundef %75)
  %77 = call i32 @test_int_eq(ptr noundef @.str.6, i32 noundef 100, ptr noundef @.str.21, ptr noundef @.str.22, i32 noundef %76, i32 noundef 1)
  %78 = icmp ne i32 %77, 0
  br i1 %78, label %80, label %79

79:                                               ; preds = %74
  store i32 2, ptr %8, align 4
  br label %92

80:                                               ; preds = %74
  %81 = load ptr, ptr %7, align 8, !tbaa !15
  %82 = call i32 @EVP_PKEY_sign(ptr noundef %81, ptr noundef null, ptr noundef %9, ptr noundef null, i64 noundef 0)
  %83 = call i32 @test_int_eq(ptr noundef @.str.6, i32 noundef 103, ptr noundef @.str.23, ptr noundef @.str.22, i32 noundef %82, i32 noundef 1)
  %84 = icmp ne i32 %83, 0
  br i1 %84, label %85, label %89

85:                                               ; preds = %80
  %86 = load i64, ptr %9, align 8, !tbaa !17
  %87 = call i32 @test_size_t_eq(ptr noundef @.str.6, i32 noundef 104, ptr noundef @.str.24, ptr noundef @.str.25, i64 noundef %86, i64 noundef 256)
  %88 = icmp ne i32 %87, 0
  br i1 %88, label %90, label %89

89:                                               ; preds = %85, %80
  store i32 2, ptr %8, align 4
  br label %92

90:                                               ; preds = %85
  %91 = load ptr, ptr %7, align 8, !tbaa !15
  call void @EVP_PKEY_CTX_free(ptr noundef %91)
  store ptr null, ptr %7, align 8, !tbaa !15
  store i32 0, ptr %8, align 4
  br label %92

92:                                               ; preds = %89, %79, %73, %90
  call void @llvm.lifetime.end.p0(i64 8, ptr %9) #3
  %93 = load i32, ptr %8, align 4
  switch i32 %93, label %106 [
    i32 0, label %94
    i32 2, label %99
  ]

94:                                               ; preds = %92
  br label %95

95:                                               ; preds = %94
  %96 = load i32, ptr %4, align 4, !tbaa !11
  %97 = add nsw i32 %96, 1
  store i32 %97, ptr %4, align 4, !tbaa !11
  br label %64, !llvm.loop !19

98:                                               ; preds = %64
  store i32 1, ptr %5, align 4, !tbaa !11
  br label %99

99:                                               ; preds = %98, %92, %61, %37, %20
  %100 = load ptr, ptr %3, align 8, !tbaa !9
  call void @fake_rsa_finish(ptr noundef %100)
  %101 = load ptr, ptr %2, align 8, !tbaa !9
  %102 = call i32 @OSSL_PROVIDER_unload(ptr noundef %101)
  %103 = load ptr, ptr %7, align 8, !tbaa !15
  call void @EVP_PKEY_CTX_free(ptr noundef %103)
  %104 = load ptr, ptr %6, align 8, !tbaa !13
  call void @EVP_PKEY_free(ptr noundef %104)
  %105 = load i32, ptr %5, align 4, !tbaa !11
  store i32 %105, ptr %1, align 4
  store i32 1, ptr %8, align 4
  br label %106

106:                                              ; preds = %99, %92, %14
  call void @llvm.lifetime.end.p0(i64 8, ptr %7) #3
  call void @llvm.lifetime.end.p0(i64 8, ptr %6) #3
  call void @llvm.lifetime.end.p0(i64 4, ptr %5) #3
  call void @llvm.lifetime.end.p0(i64 4, ptr %4) #3
  call void @llvm.lifetime.end.p0(i64 8, ptr %3) #3
  call void @llvm.lifetime.end.p0(i64 8, ptr %2) #3
  %107 = load i32, ptr %1, align 4
  ret i32 %107
}