; Function Attrs: nounwind uwtable
define internal range(i32 0, 2) i32 @test_pkey_sig() #0 {
  %1 = alloca ptr, align 8
  %2 = alloca i64, align 8
  call void @llvm.lifetime.start.p0(i64 8, ptr nonnull %1) #3
  store ptr null, ptr %1, align 8, !tbaa !9
  %3 = load ptr, ptr @libctx, align 8, !tbaa !4
  %4 = tail call ptr @fake_rsa_start(ptr noundef %3) #3
  %5 = tail call i32 @test_ptr(ptr noundef nonnull @.str.6, i32 noundef 60, ptr noundef nonnull @.str.7, ptr noundef %4) #3
  %.not = icmp eq i32 %5, 0
  br i1 %.not, label %54, label %6

6:                                                ; preds = %0
  %7 = load ptr, ptr @libctx, align 8, !tbaa !4
  %8 = tail call ptr @OSSL_PROVIDER_load(ptr noundef %7, ptr noundef nonnull @.str.9) #3
  %9 = tail call i32 @test_ptr(ptr noundef nonnull @.str.6, i32 noundef 63, ptr noundef nonnull @.str.8, ptr noundef %8) #3
  %.not19 = icmp eq i32 %9, 0
  br i1 %.not19, label %.loopexit, label %10

10:                                               ; preds = %6
  %11 = load ptr, ptr @libctx, align 8, !tbaa !4
  %12 = tail call fastcc i32 @fetch_sig(ptr noundef %11, ptr noundef nonnull @.str.12, ptr noundef %4)
  %13 = tail call i32 @test_true(ptr noundef nonnull @.str.6, i32 noundef 67, ptr noundef nonnull @.str.10, i32 noundef %12) #3
  %.not20 = icmp eq i32 %13, 0
  br i1 %.not20, label %.loopexit, label %14

14:                                               ; preds = %10
  %15 = load ptr, ptr @libctx, align 8, !tbaa !4
  %16 = tail call fastcc i32 @fetch_sig(ptr noundef %15, ptr noundef nonnull @.str.14, ptr noundef %4)
  %17 = tail call i32 @test_true(ptr noundef nonnull @.str.6, i32 noundef 68, ptr noundef nonnull @.str.13, i32 noundef %16) #3
  %.not21 = icmp eq i32 %17, 0
  br i1 %.not21, label %.loopexit, label %18

18:                                               ; preds = %14
  %19 = load ptr, ptr @libctx, align 8, !tbaa !4
  %20 = tail call ptr @EVP_PKEY_CTX_new_from_name(ptr noundef %19, ptr noundef nonnull @.str.11, ptr noundef nonnull @.str.12) #3
  %21 = tail call i32 @test_ptr(ptr noundef nonnull @.str.6, i32 noundef 73, ptr noundef nonnull @.str.15, ptr noundef %20) #3
  %.not22 = icmp eq i32 %21, 0
  br i1 %.not22, label %.loopexit, label %22

22:                                               ; preds = %18
  %23 = tail call i32 @EVP_PKEY_fromdata_init(ptr noundef %20) #3
  %24 = icmp ne i32 %23, 0
  %25 = zext i1 %24 to i32
  %26 = tail call i32 @test_true(ptr noundef nonnull @.str.6, i32 noundef 74, ptr noundef nonnull @.str.16, i32 noundef %25) #3
  %.not23 = icmp eq i32 %26, 0
  br i1 %.not23, label %.loopexit, label %27

27:                                               ; preds = %22
  %28 = call i32 @EVP_PKEY_fromdata(ptr noundef %20, ptr noundef nonnull %1, i32 noundef 135, ptr noundef null) #3
  %29 = icmp ne i32 %28, 0
  %30 = zext i1 %29 to i32
  %31 = call i32 @test_true(ptr noundef nonnull @.str.6, i32 noundef 75, ptr noundef nonnull @.str.17, i32 noundef %30) #3
  %.not24 = icmp eq i32 %31, 0
  br i1 %.not24, label %.loopexit, label %32

32:                                               ; preds = %27
  %33 = load ptr, ptr %1, align 8, !tbaa !9
  %34 = call i32 @test_ptr(ptr noundef nonnull @.str.6, i32 noundef 76, ptr noundef nonnull @.str.18, ptr noundef %33) #3
  %.not25 = icmp eq i32 %34, 0
  br i1 %.not25, label %.loopexit, label %35

35:                                               ; preds = %32
  call void @EVP_PKEY_CTX_free(ptr noundef %20) #3
  br label %36

36:                                               ; preds = %35, %50
  %.01734 = phi i32 [ 0, %35 ], [ %51, %50 ]
  call void @llvm.lifetime.start.p0(i64 8, ptr nonnull %2) #3
  %37 = load ptr, ptr @libctx, align 8, !tbaa !4
  %38 = load ptr, ptr %1, align 8, !tbaa !9
  %39 = call ptr @EVP_PKEY_CTX_new_from_pkey(ptr noundef %37, ptr noundef %38, ptr noundef nonnull @.str.20) #3
  %40 = call i32 @test_ptr(ptr noundef nonnull @.str.6, i32 noundef 92, ptr noundef nonnull @.str.19, ptr noundef %39) #3
  %.not26 = icmp eq i32 %40, 0
  br i1 %.not26, label %.thread, label %41

41:                                               ; preds = %36
  %42 = call i32 @EVP_PKEY_sign_init(ptr noundef %39) #3
  %43 = call i32 @test_int_eq(ptr noundef nonnull @.str.6, i32 noundef 100, ptr noundef nonnull @.str.21, ptr noundef nonnull @.str.22, i32 noundef %42, i32 noundef 1) #3
  %.not27 = icmp eq i32 %43, 0
  br i1 %.not27, label %.thread, label %44

44:                                               ; preds = %41
  %45 = call i32 @EVP_PKEY_sign(ptr noundef %39, ptr noundef null, ptr noundef nonnull %2, ptr noundef null, i64 noundef 0) #3
  %46 = call i32 @test_int_eq(ptr noundef nonnull @.str.6, i32 noundef 103, ptr noundef nonnull @.str.23, ptr noundef nonnull @.str.22, i32 noundef %45, i32 noundef 1) #3
  %.not28 = icmp eq i32 %46, 0
  br i1 %.not28, label %.thread, label %47

47:                                               ; preds = %44
  %48 = load i64, ptr %2, align 8, !tbaa !11
  %49 = call i32 @test_size_t_eq(ptr noundef nonnull @.str.6, i32 noundef 104, ptr noundef nonnull @.str.24, ptr noundef nonnull @.str.25, i64 noundef %48, i64 noundef 256) #3
  %.not29 = icmp eq i32 %49, 0
  br i1 %.not29, label %.thread, label %50

.thread:                                          ; preds = %36, %41, %47, %44
  call void @llvm.lifetime.end.p0(i64 8, ptr nonnull %2) #3
  br label %.loopexit

50:                                               ; preds = %47
  call void @EVP_PKEY_CTX_free(ptr noundef %39) #3
  call void @llvm.lifetime.end.p0(i64 8, ptr nonnull %2) #3
  %51 = add nuw nsw i32 %.01734, 1
  %exitcond.not = icmp eq i32 %51, 3
  br i1 %exitcond.not, label %.loopexit, label %36, !llvm.loop !13

.loopexit:                                        ; preds = %50, %.thread, %18, %22, %27, %32, %10, %14, %6
  %.016 = phi i32 [ 0, %32 ], [ 0, %27 ], [ 0, %22 ], [ 0, %18 ], [ 0, %14 ], [ 0, %10 ], [ 0, %6 ], [ 0, %.thread ], [ 1, %50 ]
  %.015 = phi ptr [ %20, %32 ], [ %20, %27 ], [ %20, %22 ], [ %20, %18 ], [ null, %14 ], [ null, %10 ], [ null, %6 ], [ %39, %.thread ], [ null, %50 ]
  call void @fake_rsa_finish(ptr noundef %4) #3
  %52 = call i32 @OSSL_PROVIDER_unload(ptr noundef %8) #3
  call void @EVP_PKEY_CTX_free(ptr noundef %.015) #3
  %53 = load ptr, ptr %1, align 8, !tbaa !9
  call void @EVP_PKEY_free(ptr noundef %53) #3
  br label %54

54:                                               ; preds = %0, %.loopexit
  %.018 = phi i32 [ %.016, %.loopexit ], [ 0, %0 ]
  call void @llvm.lifetime.end.p0(i64 8, ptr nonnull %1) #3
  ret i32 %.018
}